target datalayout = "e-m:e-p270:32:32-p271:32:32-p272:64:64-i64:64-i128:128-f80:128-n8:16:32:64-S128"
target triple = "x86_64-pc-linux-gnu"

%struct.aom_codec_iface = type { ptr, i32, i64, ptr, ptr, ptr, %struct.aom_codec_dec_iface, %struct.aom_codec_enc_iface, ptr }
%struct.aom_codec_dec_iface = type { ptr, ptr, ptr, ptr, ptr }
%struct.aom_codec_enc_iface = type { i32, ptr, ptr, ptr, ptr, ptr, ptr }
%struct.aom_codec_ctx = type { ptr, ptr, i32, ptr, i64, %union.anon, ptr }
%union.anon = type { ptr }

; Function Attrs: nounwind uwtable
define internal ptr @get_alg_priv(ptr noundef %0) #0 {
  %2 = alloca ptr, align 8
  store ptr %0, ptr %2, align 8
  %3 = load ptr, ptr %2, align 8
  %4 = getelementptr inbounds nuw %struct.aom_codec_ctx, ptr %3, i32 0, i32 6
  %5 = load ptr, ptr %4, align 8
  ret ptr %5
}

; Function Attrs: nounwind uwtable
define hidden i32 @aom_codec_set_frame_buffer_functions(ptr noundef %0, ptr noundef %1, ptr noundef %2, ptr noundef %3) #0 {
  %5 = alloca ptr, align 8
  %6 = alloca ptr, align 8
  %7 = alloca ptr, align 8
  %8 = alloca ptr, align 8
  %9 = alloca i32, align 4
  store ptr %0, ptr %5, align 8
  store ptr %1, ptr %6, align 8
  store ptr %2, ptr %7, align 8
  store ptr %3, ptr %8, align 8
  %10 = load ptr, ptr %5, align 8
  %11 = icmp ne ptr %10, null
  br i1 %11, label %12, label %18

12:                                               ; preds = %4
  %13 = load ptr, ptr %6, align 8
  %14 = icmp ne ptr %13, null
  br i1 %14, label %15, label %18

15:                                               ; preds = %12
  %16 = load ptr, ptr %7, align 8
  %17 = icmp ne ptr %16, null
  br i1 %17, label %19, label %18

18:                                               ; preds = %15, %12, %4
  store i32 8, ptr %9, align 4
  br label %54

19:                                               ; preds = %15
  %20 = load ptr, ptr %5, align 8
  %21 = getelementptr inbounds nuw %struct.aom_codec_ctx, ptr %20, i32 0, i32 1
  %22 = load ptr, ptr %21, align 8
  %23 = icmp ne ptr %22, null
  br i1 %23, label %24, label %29

24:                                               ; preds = %19
  %25 = load ptr, ptr %5, align 8
  %26 = getelementptr inbounds nuw %struct.aom_codec_ctx, ptr %25, i32 0, i32 6
  %27 = load ptr, ptr %26, align 8
  %28 = icmp ne ptr %27, null
  br i1 %28, label %30, label %29

29:                                               ; preds = %24, %19
  store i32 1, ptr %9, align 4
  br label %53

30:                                               ; preds = %24
  %31 = load ptr, ptr %5, align 8
  %32 = getelementptr inbounds nuw %struct.aom_codec_ctx, ptr %31, i32 0, i32 1
  %33 = load ptr, ptr %32, align 8
  %34 = getelementptr inbounds nuw %struct.aom_codec_iface, ptr %33, i32 0, i32 2
  %35 = load i64, ptr %34, align 8
  %36 = and i64 %35, 2097152
  %37 = icmp ne i64 %36, 0
  br i1 %37, label %39, label %38

38:                                               ; preds = %30
  store i32 4, ptr %9, align 4
  br label %52

39:                                               ; preds = %30
  %40 = load ptr, ptr %5, align 8
  %41 = getelementptr inbounds nuw %struct.aom_codec_ctx, ptr %40, i32 0, i32 1
  %42 = load ptr, ptr %41, align 8
  %43 = getelementptr inbounds nuw %struct.aom_codec_iface, ptr %42, i32 0, i32 6
  %44 = getelementptr inbounds nuw %struct.aom_codec_dec_iface, ptr %43, i32 0, i32 4
  %45 = load ptr, ptr %44, align 8
  %46 = load ptr, ptr %5, align 8
  %47 = call ptr @get_alg_priv(ptr noundef %46)
  %48 = load ptr, ptr %6, align 8
  %49 = load ptr, ptr %7, align 8
  %50 = load ptr, ptr %8, align 8
  %51 = call i32 %45(ptr noundef %47, ptr noundef %48, ptr noundef %49, ptr noundef %50)
  store i32 %51, ptr %9, align 4
  br label %52

52:                                               ; preds = %39, %38
  br label %53

53:                                               ; preds = %52, %29
  br label %54

54:                                               ; preds = %53, %18
  %55 = load ptr, ptr %5, align 8
  %56 = icmp ne ptr %55, null
  br i1 %56, label %57, label %61

57:                                               ; preds = %54
  %58 = load i32, ptr %9, align 4
  %59 = load ptr, ptr %5, align 8
  %60 = getelementptr inbounds nuw %struct.aom_codec_ctx, ptr %59, i32 0, i32 2
  store i32 %58, ptr %60, align 8
  br label %63

61:                                               ; preds = %54
  %62 = load i32, ptr %9, align 4
  br label %63

63:                                               ; preds = %61, %57
  %64 = phi i32 [ %58, %57 ], [ %62, %61 ]
  ret i32 %64
}