; Function Attrs: nounwind uwtable
define hidden i32 @aom_codec_set_frame_buffer_functions(ptr noundef %0, ptr noundef %1, ptr noundef %2, ptr noundef %3) local_unnamed_addr #0 {
  %5 = icmp ne ptr %0, null
  %6 = icmp ne ptr %1, null
  %7 = icmp ne ptr %2, null
  %8 = and i1 %6, %7
  %or.cond3 = and i1 %5, %8
  br i1 %or.cond3, label %9, label %23

9:                                                ; preds = %4
  %10 = getelementptr inbounds nuw i8, ptr %0, i64 8
  %11 = load ptr, ptr %10, align 8
  %.not = icmp eq ptr %11, null
  br i1 %.not, label %.thread, label %12

12:                                               ; preds = %9
  %13 = getelementptr inbounds nuw i8, ptr %0, i64 48
  %14 = load ptr, ptr %13, align 8
  %.not21 = icmp eq ptr %14, null
  br i1 %.not21, label %.thread, label %15

15:                                               ; preds = %12
  %16 = getelementptr inbounds nuw i8, ptr %11, i64 16
  %17 = load i64, ptr %16, align 8
  %18 = and i64 %17, 2097152
  %.not22 = icmp eq i64 %18, 0
  br i1 %.not22, label %.thread, label %19

19:                                               ; preds = %15
  %20 = getelementptr inbounds i8, ptr %11, i64 80
  %21 = load ptr, ptr %20, align 8
  %22 = tail call i32 %21(ptr noundef nonnull %14, ptr noundef nonnull %1, ptr noundef nonnull %2, ptr noundef %3) #3
  br label %.thread

23:                                               ; preds = %4
  br i1 %5, label %.thread, label %25

.thread:                                          ; preds = %19, %12, %9, %15, %23
  %.024 = phi i32 [ 8, %23 ], [ 4, %15 ], [ 1, %9 ], [ 1, %12 ], [ %22, %19 ]
  %24 = getelementptr inbounds nuw i8, ptr %0, i64 16
  store i32 %.024, ptr %24, align 8
  br label %25

25:                                               ; preds = %23, %.thread
  %.025 = phi i32 [ 8, %23 ], [ %.024, %.thread ]
  ret i32 %.025
}